target datalayout = "e-m:e-p270:32:32-p271:32:32-p272:64:64-i64:64-i128:128-f80:128-n8:16:32:64-S128"
target triple = "x86_64-pc-linux-gnu"

%"struct.OpenImageIO::v3_1_0::ROI" = type { i32, i32, i32, i32, i32, i32, i32, i32 }
%"class.OpenImageIO::v3_1_0::ImageBuf" = type { %"class.std::unique_ptr" }
%"class.std::unique_ptr" = type { %"struct.std::__uniq_ptr_data" }
%"struct.std::__uniq_ptr_data" = type { %"class.std::__uniq_ptr_impl" }
%"class.std::__uniq_ptr_impl" = type { %"class.std::tuple" }
%"class.std::tuple" = type { %"struct.std::_Tuple_impl" }
%"struct.std::_Tuple_impl" = type { %"struct.std::_Tuple_impl.0", %"struct.std::_Head_base.1" }
%"struct.std::_Tuple_impl.0" = type { %"struct.std::_Head_base" }
%"struct.std::_Head_base" = type { ptr }
%"struct.std::_Head_base.1" = type { ptr }

@.str.49 = private unnamed_addr constant [29 x i8] c"ImageBufAlgo::dilate() error\00", align 1

; Function Attrs: mustprogress uwtable
define void @_ZN11OpenImageIO6v3_1_012ImageBufAlgo6dilateERKNS0_8ImageBufEiiNS0_3ROIEi(ptr dead_on_unwind noalias writable sret(%"class.OpenImageIO::v3_1_0::ImageBuf") align 8 %0, ptr noundef nonnull align 8 dereferenceable(16) %1, i32 noundef %2, i32 noundef %3, ptr noundef byval(%"struct.OpenImageIO::v3_1_0::ROI") align 8 %4, i32 noundef %5) #6 personality ptr @__gxx_personality_v0 {
  %7 = alloca ptr, align 8
  %8 = alloca ptr, align 8
  %9 = alloca i32, align 4
  %10 = alloca i32, align 4
  %11 = alloca i32, align 4
  %12 = alloca i1, align 1
  %13 = alloca i8, align 1
  %14 = alloca %"struct.OpenImageIO::v3_1_0::ROI", align 8
  %15 = alloca ptr, align 8
  %16 = alloca i32, align 4
  store ptr %0, ptr %7, align 8
  store ptr %1, ptr %8, align 8, !tbaa !10
  store i32 %2, ptr %9, align 4, !tbaa !14
  store i32 %3, ptr %10, align 4, !tbaa !14
  store i32 %5, ptr %11, align 4, !tbaa !14
  store i1 false, ptr %12, align 1
  call void @_ZN11OpenImageIO6v3_1_08ImageBufC1Ev(ptr noundef nonnull align 8 dereferenceable(16) %0)
  call void @llvm.lifetime.start.p0(i64 1, ptr %13) #3
  %17 = load ptr, ptr %8, align 8, !tbaa !10
  %18 = load i32, ptr %9, align 4, !tbaa !14
  %19 = load i32, ptr %10, align 4, !tbaa !14
  call void @llvm.memcpy.p0.p0.i64(ptr align 4 %14, ptr align 8 %4, i64 32, i1 false), !tbaa.struct !16
  %20 = load i32, ptr %11, align 4, !tbaa !14
  %21 = invoke noundef zeroext i1 @_ZN11OpenImageIO6v3_1_012ImageBufAlgo6dilateERNS0_8ImageBufERKS2_iiNS0_3ROIEi(ptr noundef nonnull align 8 dereferenceable(16) %0, ptr noundef nonnull align 8 dereferenceable(16) %17, i32 noundef %18, i32 noundef %19, ptr noundef byval(%"struct.OpenImageIO::v3_1_0::ROI") align 8 %14, i32 noundef %20)
          to label %22 unwind label %31

22:                                               ; preds = %6
  %23 = zext i1 %21 to i8
  store i8 %23, ptr %13, align 1, !tbaa !108
  %24 = load i8, ptr %13, align 1, !tbaa !108, !range !113, !noundef !114
  %25 = trunc i8 %24 to i1
  br i1 %25, label %35, label %26

26:                                               ; preds = %22
  %27 = invoke noundef zeroext i1 @_ZNK11OpenImageIO6v3_1_08ImageBuf9has_errorEv(ptr noundef nonnull align 8 dereferenceable(16) %0)
          to label %28 unwind label %31

28:                                               ; preds = %26
  br i1 %27, label %35, label %29

29:                                               ; preds = %28
  invoke void @_ZNK11OpenImageIO6v3_1_08ImageBuf8errorfmtIA29_cJEEEvRKT_DpOT0_(ptr noundef nonnull align 8 dereferenceable(16) %0, ptr noundef nonnull align 1 dereferenceable(29) @.str.49)
          to label %30 unwind label %31

30:                                               ; preds = %29
  br label %35

31:                                               ; preds = %29, %26, %6
  %32 = landingpad { ptr, i32 }
          cleanup
  %33 = extractvalue { ptr, i32 } %32, 0
  store ptr %33, ptr %15, align 8
  %34 = extractvalue { ptr, i32 } %32, 1
  store i32 %34, ptr %16, align 4
  call void @llvm.lifetime.end.p0(i64 1, ptr %13) #3
  call void @_ZN11OpenImageIO6v3_1_08ImageBufD1Ev(ptr noundef nonnull align 8 dereferenceable(16) %0) #3
  br label %39

35:                                               ; preds = %30, %28, %22
  store i1 true, ptr %12, align 1
  call void @llvm.lifetime.end.p0(i64 1, ptr %13) #3
  %36 = load i1, ptr %12, align 1
  br i1 %36, label %38, label %37

37:                                               ; preds = %35
  call void @_ZN11OpenImageIO6v3_1_08ImageBufD1Ev(ptr noundef nonnull align 8 dereferenceable(16) %0) #3
  br label %38

38:                                               ; preds = %37, %35
  ret void

39:                                               ; preds = %31
  %40 = load ptr, ptr %15, align 8
  %41 = load i32, ptr %16, align 4
  %42 = insertvalue { ptr, i32 } poison, ptr %40, 0
  %43 = insertvalue { ptr, i32 } %42, i32 %41, 1
  resume { ptr, i32 } %43
}